; ModuleID = '29/1054.c'
source_filename = "29/1054.c"
target datalayout = "e-m:e-p270:32:32-p271:32:32-p272:64:64-i64:64-f80:128-n8:16:32:64-S128"
target triple = "x86_64-pc-linux-gnu"

@.str = private unnamed_addr constant [3 x i8] c"%d\00", align 1
@.str.1 = private unnamed_addr constant [7 x i8] c"%.3lf\0A\00", align 1

; Function Attrs: noinline nounwind uwtable
define dso_local i32 @main() #0 {
  %1 = alloca i32, align 4
  %2 = alloca i32, align 4
  %3 = alloca i32, align 4
  %4 = alloca i32, align 4
  %5 = alloca i32, align 4
  %6 = alloca double, align 8
  %7 = alloca double, align 8
  %8 = alloca [100 x double], align 16
  store i32 0, i32* %1, align 4
  %9 = call i32 (i8*, ...) @__isoc99_scanf(i8* getelementptr inbounds ([3 x i8], [3 x i8]* @.str, i64 0, i64 0), i32* %2)
  store i32 1, i32* %4, align 4
  br label %10

10:                                               ; preds = %35, %0
  %11 = load i32, i32* %4, align 4
  %12 = load i32, i32* %2, align 4
  %13 = icmp sle i32 %11, %12
  br i1 %13, label %14, label %38

14:                                               ; preds = %10
  %15 = call i32 (i8*, ...) @__isoc99_scanf(i8* getelementptr inbounds ([3 x i8], [3 x i8]* @.str, i64 0, i64 0), i32* %3)
  store double 0.000000e+00, double* %7, align 8
  store double 2.000000e+00, double* %6, align 8
  store i32 1, i32* %5, align 4
  br label %16

16:                                               ; preds = %27, %14
  %17 = load i32, i32* %5, align 4
  %18 = load i32, i32* %3, align 4
  %19 = icmp sle i32 %17, %18
  br i1 %19, label %20, label %30

20:                                               ; preds = %16
  %21 = load double, double* %6, align 8
  %22 = load double, double* %7, align 8
  %23 = fadd double %22, %21
  store double %23, double* %7, align 8
  %24 = load double, double* %6, align 8
  %25 = fdiv double 1.000000e+00, %24
  %26 = fadd double %25, 1.000000e+00
  store double %26, double* %6, align 8
  br label %27

27:                                               ; preds = %20
  %28 = load i32, i32* %5, align 4
  %29 = add nsw i32 %28, 1
  store i32 %29, i32* %5, align 4
  br label %16

30:                                               ; preds = %16
  %31 = load double, double* %7, align 8
  %32 = load i32, i32* %4, align 4
  %33 = sext i32 %32 to i64
  %34 = getelementptr inbounds [100 x double], [100 x double]* %8, i64 0, i64 %33
  store double %31, double* %34, align 8
  br label %35

35:                                               ; preds = %30
  %36 = load i32, i32* %4, align 4
  %37 = add nsw i32 %36, 1
  store i32 %37, i32* %4, align 4
  br label %10

38:                                               ; preds = %10
  store i32 1, i32* %4, align 4
  br label %39

39:                                               ; preds = %49, %38
  %40 = load i32, i32* %4, align 4
  %41 = load i32, i32* %2, align 4
  %42 = icmp sle i32 %40, %41
  br i1 %42, label %43, label %52

43:                                               ; preds = %39
  %44 = load i32, i32* %4, align 4
  %45 = sext i32 %44 to i64
  %46 = getelementptr inbounds [100 x double], [100 x double]* %8, i64 0, i64 %45
  %47 = load double, double* %46, align 8
  %48 = call i32 (i8*, ...) @printf(i8* getelementptr inbounds ([7 x i8], [7 x i8]* @.str.1, i64 0, i64 0), double %47)
  br label %49

49:                                               ; preds = %43
  %50 = load i32, i32* %4, align 4
  %51 = add nsw i32 %50, 1
  store i32 %51, i32* %4, align 4
  br label %39

52:                                               ; preds = %39
  ret i32 0
}

declare dso_local i32 @__isoc99_scanf(i8*, ...) #1

declare dso_local i32 @printf(i8*, ...) #1


!llvm.module.flags = !{!0}
!llvm.ident = !{!1}

!0 = !{i32 1, !"wchar_size", i32 4}
!1 = !{!"clang version 10.0.0-4ubuntu1 "}
